; Function Attrs: mustprogress uwtable
define void @_ZN5faiss11IndexFlat1D3addElPKf(ptr noundef nonnull align 8 dereferenceable(128) %0, i64 noundef %1, ptr noundef %2) unnamed_addr #2 align 2 personality ptr @__gxx_personality_v0 {
  tail call void @_ZN5faiss14IndexFlatCodes3addElPKf(ptr noundef nonnull align 8 dereferenceable(72) %0, i64 noundef %1, ptr noundef %2)
  %4 = getelementptr inbounds nuw i8, ptr %0, i64 96
  %5 = load i8, ptr %4, align 8, !tbaa !80, !range !90, !noundef !91
  %6 = trunc nuw i8 %5 to i1
  br i1 %6, label %7, label %_ZN5faiss11IndexFlat1D18update_permutationEv.exit

7:                                                ; preds = %3
  %8 = getelementptr inbounds nuw i8, ptr %0, i64 104
  %9 = getelementptr inbounds nuw i8, ptr %0, i64 16
  %10 = load i64, ptr %9, align 8, !tbaa !37
  %11 = getelementptr inbounds nuw i8, ptr %0, i64 112
  %12 = load ptr, ptr %11, align 8, !tbaa !92
  %13 = load ptr, ptr %8, align 8, !tbaa !77
  %14 = ptrtoint ptr %12 to i64
  %15 = ptrtoint ptr %13 to i64
  %16 = sub i64 %14, %15
  %17 = ashr exact i64 %16, 3
  %18 = icmp ugt i64 %10, %17
  br i1 %18, label %19, label %21

19:                                               ; preds = %7
  %20 = sub nuw i64 %10, %17
  tail call void @_ZNSt6vectorIlSaIlEE17_M_default_appendEm(ptr noundef nonnull align 8 dereferenceable(24) %8, i64 noundef %20)
  %.pre.i = load i64, ptr %9, align 8, !tbaa !37
  %.pre = load ptr, ptr %8, align 8, !tbaa !77
  br label %_ZNSt6vectorIlSaIlEE6resizeEm.exit.i

21:                                               ; preds = %7
  %22 = icmp ult i64 %10, %17
  br i1 %22, label %23, label %_ZNSt6vectorIlSaIlEE6resizeEm.exit.i

23:                                               ; preds = %21
  %24 = getelementptr inbounds nuw i64, ptr %13, i64 %10
  %.not.i.i.i = icmp eq ptr %12, %24
  br i1 %.not.i.i.i, label %_ZNSt6vectorIlSaIlEE6resizeEm.exit.i, label %25

25:                                               ; preds = %23
  store ptr %24, ptr %11, align 8, !tbaa !92
  br label %_ZNSt6vectorIlSaIlEE6resizeEm.exit.i

_ZNSt6vectorIlSaIlEE6resizeEm.exit.i:             ; preds = %25, %23, %21, %19
  %26 = phi ptr [ %.pre, %19 ], [ %13, %21 ], [ %13, %23 ], [ %13, %25 ]
  %27 = phi i64 [ %.pre.i, %19 ], [ %10, %21 ], [ %10, %23 ], [ %10, %25 ]
  %28 = icmp slt i64 %27, 1000000
  %29 = getelementptr inbounds nuw i8, ptr %0, i64 48
  %30 = load ptr, ptr %29, align 8, !tbaa !7
  br i1 %28, label %31, label %32

31:                                               ; preds = %_ZNSt6vectorIlSaIlEE6resizeEm.exit.i
  tail call void @_ZN5faiss12fvec_argsortEmPKfPm(i64 noundef %27, ptr noundef %30, ptr noundef %26)
  br label %_ZN5faiss11IndexFlat1D18update_permutationEv.exit

32:                                               ; preds = %_ZNSt6vectorIlSaIlEE6resizeEm.exit.i
  tail call void @_ZN5faiss21fvec_argsort_parallelEmPKfPm(i64 noundef %27, ptr noundef %30, ptr noundef %26)
  br label %_ZN5faiss11IndexFlat1D18update_permutationEv.exit

_ZN5faiss11IndexFlat1D18update_permutationEv.exit: ; preds = %32, %31, %3
  ret void
}